target datalayout = "e-m:e-p270:32:32-p271:32:32-p272:64:64-i64:64-i128:128-f80:128-n8:16:32:64-S128"
target triple = "x86_64-unknown-linux-gnu"

%"class.boost::detail::shared_count" = type { ptr }
%"class.QuantLib::FdmAmericanStepCondition" = type { %"class.QuantLib::StepCondition", %"class.boost::shared_ptr.18", %"class.boost::shared_ptr.19" }
%"class.QuantLib::StepCondition" = type { ptr }
%"class.boost::shared_ptr.18" = type { ptr, %"class.boost::detail::shared_count" }
%"class.boost::shared_ptr.19" = type { ptr, %"class.boost::detail::shared_count" }

; Function Attrs: mustprogress nounwind uwtable
define linkonce_odr void @_ZN5boost6detail12shared_countC2EOS1_(ptr noundef nonnull align 8 dereferenceable(8) %this, ptr noundef nonnull align 8 dereferenceable(8) %r) unnamed_addr #5 comdat align 2 {
entry:
  %this.addr = alloca ptr, align 8
  %r.addr = alloca ptr, align 8
  store ptr %this, ptr %this.addr, align 8, !tbaa !3
  store ptr %r, ptr %r.addr, align 8, !tbaa !3
  %this1 = load ptr, ptr %this.addr, align 8
  %pi_ = getelementptr inbounds nuw %"class.boost::detail::shared_count", ptr %this1, i32 0, i32 0
  %0 = load ptr, ptr %r.addr, align 8, !tbaa !3
  %pi_2 = getelementptr inbounds nuw %"class.boost::detail::shared_count", ptr %0, i32 0, i32 0
  %1 = load ptr, ptr %pi_2, align 8, !tbaa !38
  store ptr %1, ptr %pi_, align 8, !tbaa !38
  %2 = load ptr, ptr %r.addr, align 8, !tbaa !3
  %pi_3 = getelementptr inbounds nuw %"class.boost::detail::shared_count", ptr %2, i32 0, i32 0
  store ptr null, ptr %pi_3, align 8, !tbaa !38
  ret void
}

; Function Attrs: mustprogress nounwind uwtable
define linkonce_odr void @_ZN5boost10shared_ptrIN8QuantLib23FdmInnerValueCalculatorEEC2EOS3_(ptr noundef nonnull align 8 dereferenceable(16) %this, ptr noundef nonnull align 8 dereferenceable(16) %r) unnamed_addr #5 comdat align 2 {
entry:
  %this.addr = alloca ptr, align 8
  %r.addr = alloca ptr, align 8
  store ptr %this, ptr %this.addr, align 8, !tbaa !3
  store ptr %r, ptr %r.addr, align 8, !tbaa !3
  %this1 = load ptr, ptr %this.addr, align 8
  %px = getelementptr inbounds nuw %"class.boost::shared_ptr.19", ptr %this1, i32 0, i32 0
  %0 = load ptr, ptr %r.addr, align 8, !tbaa !3
  %px2 = getelementptr inbounds nuw %"class.boost::shared_ptr.19", ptr %0, i32 0, i32 0
  %1 = load ptr, ptr %px2, align 8, !tbaa !12
  store ptr %1, ptr %px, align 8, !tbaa !12
  %pn = getelementptr inbounds nuw %"class.boost::shared_ptr.19", ptr %this1, i32 0, i32 1
  %2 = load ptr, ptr %r.addr, align 8, !tbaa !3
  %pn3 = getelementptr inbounds nuw %"class.boost::shared_ptr.19", ptr %2, i32 0, i32 1
  call void @_ZN5boost6detail12shared_countC2EOS1_(ptr noundef nonnull align 8 dereferenceable(8) %pn, ptr noundef nonnull align 8 dereferenceable(8) %pn3) #15
  %3 = load ptr, ptr %r.addr, align 8, !tbaa !3
  %px4 = getelementptr inbounds nuw %"class.boost::shared_ptr.19", ptr %3, i32 0, i32 0
  store ptr null, ptr %px4, align 8, !tbaa !12
  ret void
}

; Function Attrs: mustprogress nounwind uwtable
define linkonce_odr void @_ZN5boost10shared_ptrIN8QuantLib9FdmMesherEEC2EOS3_(ptr noundef nonnull align 8 dereferenceable(16) %this, ptr noundef nonnull align 8 dereferenceable(16) %r) unnamed_addr #5 comdat align 2 {
entry:
  %this.addr = alloca ptr, align 8
  %r.addr = alloca ptr, align 8
  store ptr %this, ptr %this.addr, align 8, !tbaa !3
  store ptr %r, ptr %r.addr, align 8, !tbaa !3
  %this1 = load ptr, ptr %this.addr, align 8
  %px = getelementptr inbounds nuw %"class.boost::shared_ptr.18", ptr %this1, i32 0, i32 0
  %0 = load ptr, ptr %r.addr, align 8, !tbaa !3
  %px2 = getelementptr inbounds nuw %"class.boost::shared_ptr.18", ptr %0, i32 0, i32 0
  %1 = load ptr, ptr %px2, align 8, !tbaa !9
  store ptr %1, ptr %px, align 8, !tbaa !9
  %pn = getelementptr inbounds nuw %"class.boost::shared_ptr.18", ptr %this1, i32 0, i32 1
  %2 = load ptr, ptr %r.addr, align 8, !tbaa !3
  %pn3 = getelementptr inbounds nuw %"class.boost::shared_ptr.18", ptr %2, i32 0, i32 1
  call void @_ZN5boost6detail12shared_countC2EOS1_(ptr noundef nonnull align 8 dereferenceable(8) %pn, ptr noundef nonnull align 8 dereferenceable(8) %pn3) #15
  %3 = load ptr, ptr %r.addr, align 8, !tbaa !3
  %px4 = getelementptr inbounds nuw %"class.boost::shared_ptr.18", ptr %3, i32 0, i32 0
  store ptr null, ptr %px4, align 8, !tbaa !9
  ret void
}

; Function Attrs: inlinehint mustprogress nounwind uwtable
define linkonce_odr void @_ZN8QuantLib13StepConditionINS_5ArrayEEC2Ev(ptr noundef nonnull align 8 dereferenceable(8) %this) unnamed_addr #7 comdat align 2 {
entry:
  %this.addr = alloca ptr, align 8
  store ptr %this, ptr %this.addr, align 8, !tbaa !3
  %this1 = load ptr, ptr %this.addr, align 8
  store ptr getelementptr inbounds inrange(-16, 24) ({ [5 x ptr] }, ptr @_ZTVN8QuantLib13StepConditionINS_5ArrayEEE, i32 0, i32 0, i32 2), ptr %this1, align 8, !tbaa !7
  ret void
}

; Function Attrs: mustprogress nounwind uwtable
define void @_ZN8QuantLib24FdmAmericanStepConditionC2EN5boost10shared_ptrINS_9FdmMesherEEENS2_INS_23FdmInnerValueCalculatorEEE(ptr noundef nonnull align 8 dereferenceable(40) %this, ptr noundef %mesher, ptr noundef %calculator) unnamed_addr #5 align 2 {
entry:
  %this.addr = alloca ptr, align 8
  %mesher.indirect_addr = alloca ptr, align 8
  %calculator.indirect_addr = alloca ptr, align 8
  store ptr %this, ptr %this.addr, align 8, !tbaa !3
  store ptr %mesher, ptr %mesher.indirect_addr, align 8, !tbaa !3
  store ptr %calculator, ptr %calculator.indirect_addr, align 8, !tbaa !3
  %this1 = load ptr, ptr %this.addr, align 8
  call void @_ZN8QuantLib13StepConditionINS_5ArrayEEC2Ev(ptr noundef nonnull align 8 dereferenceable(8) %this1) #15
  store ptr getelementptr inbounds inrange(-16, 24) ({ [5 x ptr] }, ptr @_ZTVN8QuantLib24FdmAmericanStepConditionE, i32 0, i32 0, i32 2), ptr %this1, align 8, !tbaa !7
  %mesher_ = getelementptr inbounds nuw %"class.QuantLib::FdmAmericanStepCondition", ptr %this1, i32 0, i32 1
  call void @_ZN5boost10shared_ptrIN8QuantLib9FdmMesherEEC2EOS3_(ptr noundef nonnull align 8 dereferenceable(16) %mesher_, ptr noundef nonnull align 8 dereferenceable(16) %mesher) #15
  %calculator_ = getelementptr inbounds nuw %"class.QuantLib::FdmAmericanStepCondition", ptr %this1, i32 0, i32 2
  call void @_ZN5boost10shared_ptrIN8QuantLib23FdmInnerValueCalculatorEEC2EOS3_(ptr noundef nonnull align 8 dereferenceable(16) %calculator_, ptr noundef nonnull align 8 dereferenceable(16) %calculator) #15
  ret void
}