; Function Attrs: mustprogress nofree norecurse nosync nounwind willreturn memory(argmem: readwrite) uwtable
define void @_ZN8QuantLib24FdmAmericanStepConditionC2EN5boost10shared_ptrINS_9FdmMesherEEENS2_INS_23FdmInnerValueCalculatorEEE(ptr nocapture noundef nonnull writeonly align 8 dereferenceable(40) %this, ptr nocapture noundef %mesher, ptr nocapture noundef %calculator) unnamed_addr #8 align 2 {
entry:
  store ptr getelementptr inbounds inrange(-16, 24) (i8, ptr @_ZTVN8QuantLib24FdmAmericanStepConditionE, i64 16), ptr %this, align 8, !tbaa !14
  %mesher_ = getelementptr inbounds nuw i8, ptr %this, i64 8
  %0 = load ptr, ptr %mesher, align 8, !tbaa !18
  store ptr %0, ptr %mesher_, align 8, !tbaa !18
  %pn.i = getelementptr inbounds nuw i8, ptr %this, i64 16
  %pn3.i = getelementptr inbounds nuw i8, ptr %mesher, i64 8
  %1 = load ptr, ptr %pn3.i, align 8, !tbaa !16
  store ptr %1, ptr %pn.i, align 8, !tbaa !16
  tail call void @llvm.memset.p0.i64(ptr noundef nonnull align 8 dereferenceable(16) %mesher, i8 0, i64 16, i1 false)
  %calculator_ = getelementptr inbounds nuw i8, ptr %this, i64 24
  %2 = load ptr, ptr %calculator, align 8, !tbaa !20
  store ptr %2, ptr %calculator_, align 8, !tbaa !20
  %pn.i1 = getelementptr inbounds nuw i8, ptr %this, i64 32
  %pn3.i2 = getelementptr inbounds nuw i8, ptr %calculator, i64 8
  %3 = load ptr, ptr %pn3.i2, align 8, !tbaa !16
  store ptr %3, ptr %pn.i1, align 8, !tbaa !16
  tail call void @llvm.memset.p0.i64(ptr noundef nonnull align 8 dereferenceable(16) %calculator, i8 0, i64 16, i1 false)
  ret void
}